target datalayout = "e-m:e-p270:32:32-p271:32:32-p272:64:64-i64:64-i128:128-f80:128-n8:16:32:64-S128"
target triple = "x86_64-pc-linux-gnu"

%struct._packet_info = type { ptr, ptr, i32, i32, %struct.nstime_t, %struct.nstime_t, %struct.nstime_t, i8, ptr, ptr, ptr, ptr, %struct._address, %struct._address, %struct._address, %struct._address, %struct._address, %struct._address, i32, ptr, i8, [3 x i8], %struct.anon, i32, i32, i32, i32, ptr, i8, ptr, ptr, i16, i16, i32, i32, i16, i32, i32, ptr, ptr, ptr, i8, i8, i16, i16, i16, i32, i16, i16, ptr, ptr, ptr, ptr, ptr, i32, i32 }
%struct.nstime_t = type { i64, i32 }
%struct._address = type { i32, i32, ptr, ptr }
%struct.anon = type { i8, [3 x i8] }

@hf_apdu_data = internal global i32 0, align 4
@hf_apdu_sw = internal global i32 0, align 4
@ett_sim = internal global i32 0, align 4
@proto_gsm_sim = internal global i32 0, align 4
@.str.882 = private unnamed_addr constant [21 x i8] c"Status Word: %04x %s\00", align 1
@.str.883 = private unnamed_addr constant [14 x i8] c"Response, %s \00", align 1
@.str.884 = private unnamed_addr constant [6 x i8] c": %s \00", align 1

; Function Attrs: null_pointer_is_valid sspstrong uwtable
define internal i32 @dissect_rsp_apdu_tvb(ptr noundef %0, i32 noundef %1, ptr noundef %2, ptr noundef %3, ptr noundef %4) #0 {
  %6 = alloca ptr, align 8
  %7 = alloca i32, align 4
  %8 = alloca ptr, align 8
  %9 = alloca ptr, align 8
  %10 = alloca ptr, align 8
  %11 = alloca i16, align 2
  %12 = alloca ptr, align 8
  %13 = alloca i32, align 4
  store ptr %0, ptr %6, align 8
  store i32 %1, ptr %7, align 4
  store ptr %2, ptr %8, align 8
  store ptr %3, ptr %9, align 8
  store ptr %4, ptr %10, align 8
  call void @llvm.lifetime.start.p0(i64 2, ptr %11) #3
  call void @llvm.lifetime.start.p0(i64 8, ptr %12) #3
  store ptr null, ptr %12, align 8
  call void @llvm.lifetime.start.p0(i64 4, ptr %13) #3
  %14 = load ptr, ptr %6, align 8
  %15 = call i32 @tvb_reported_length(ptr noundef %14)
  store i32 %15, ptr %13, align 4
  %16 = load ptr, ptr %9, align 8
  %17 = icmp ne ptr %16, null
  br i1 %17, label %18, label %29

18:                                               ; preds = %5
  %19 = load ptr, ptr %10, align 8
  %20 = icmp ne ptr %19, null
  br i1 %20, label %29, label %21

21:                                               ; preds = %18
  %22 = load ptr, ptr %9, align 8
  %23 = load i32, ptr @proto_gsm_sim, align 4
  %24 = load ptr, ptr %6, align 8
  %25 = call ptr @proto_tree_add_item(ptr noundef %22, i32 noundef %23, ptr noundef %24, i32 noundef 0, i32 noundef -1, i32 noundef 0)
  store ptr %25, ptr %12, align 8
  %26 = load ptr, ptr %12, align 8
  %27 = load i32, ptr @ett_sim, align 4
  %28 = call ptr @proto_item_add_subtree(ptr noundef %26, i32 noundef %27)
  store ptr %28, ptr %10, align 8
  br label %29

29:                                               ; preds = %21, %18, %5
  %30 = load i32, ptr %13, align 4
  %31 = load i32, ptr %7, align 4
  %32 = sub i32 %30, %31
  %33 = icmp ugt i32 %32, 2
  br i1 %33, label %34, label %42

34:                                               ; preds = %29
  %35 = load ptr, ptr %10, align 8
  %36 = load i32, ptr @hf_apdu_data, align 4
  %37 = load ptr, ptr %6, align 8
  %38 = load i32, ptr %7, align 4
  %39 = load i32, ptr %13, align 4
  %40 = sub i32 %39, 2
  %41 = call ptr @proto_tree_add_item(ptr noundef %35, i32 noundef %36, ptr noundef %37, i32 noundef %38, i32 noundef %40, i32 noundef 0)
  br label %42

42:                                               ; preds = %34, %29
  %43 = load i32, ptr %13, align 4
  %44 = sub i32 %43, 2
  store i32 %44, ptr %7, align 4
  %45 = load ptr, ptr %6, align 8
  %46 = load i32, ptr %7, align 4
  %47 = call zeroext i16 @tvb_get_ntohs(ptr noundef %45, i32 noundef %46)
  store i16 %47, ptr %11, align 2
  %48 = load ptr, ptr %10, align 8
  %49 = load i32, ptr @hf_apdu_sw, align 4
  %50 = load ptr, ptr %6, align 8
  %51 = load i32, ptr %7, align 4
  %52 = load i16, ptr %11, align 2
  %53 = zext i16 %52 to i32
  %54 = load i16, ptr %11, align 2
  %55 = zext i16 %54 to i32
  %56 = load ptr, ptr %8, align 8
  %57 = getelementptr inbounds nuw %struct._packet_info, ptr %56, i32 0, i32 51
  %58 = load ptr, ptr %57, align 8
  %59 = load i16, ptr %11, align 2
  %60 = call ptr @get_sw_string(ptr noundef %58, i16 noundef zeroext %59)
  %61 = call ptr (ptr, i32, ptr, i32, i32, i32, ptr, ...) @proto_tree_add_uint_format(ptr noundef %48, i32 noundef %49, ptr noundef %50, i32 noundef %51, i32 noundef 2, i32 noundef %53, ptr noundef @.str.882, i32 noundef %55, ptr noundef %60)
  %62 = load i32, ptr %7, align 4
  %63 = add i32 %62, 2
  store i32 %63, ptr %7, align 4
  %64 = load ptr, ptr %12, align 8
  %65 = icmp ne ptr %64, null
  br i1 %65, label %66, label %75

66:                                               ; preds = %42
  %67 = load ptr, ptr %8, align 8
  %68 = getelementptr inbounds nuw %struct._packet_info, ptr %67, i32 0, i32 1
  %69 = load ptr, ptr %68, align 8
  %70 = load ptr, ptr %8, align 8
  %71 = getelementptr inbounds nuw %struct._packet_info, ptr %70, i32 0, i32 51
  %72 = load ptr, ptr %71, align 8
  %73 = load i16, ptr %11, align 2
  %74 = call ptr @get_sw_string(ptr noundef %72, i16 noundef zeroext %73)
  call void (ptr, i32, ptr, ...) @col_add_fstr(ptr noundef %69, i32 noundef 25, ptr noundef @.str.883, ptr noundef %74)
  br label %90

75:                                               ; preds = %42
  %76 = load i16, ptr %11, align 2
  %77 = zext i16 %76 to i32
  %78 = ashr i32 %77, 8
  switch i32 %78, label %80 [
    i32 144, label %79
    i32 145, label %79
    i32 146, label %79
    i32 158, label %79
    i32 159, label %79
  ]

79:                                               ; preds = %75, %75, %75, %75, %75
  br label %89

80:                                               ; preds = %75
  %81 = load ptr, ptr %8, align 8
  %82 = getelementptr inbounds nuw %struct._packet_info, ptr %81, i32 0, i32 1
  %83 = load ptr, ptr %82, align 8
  %84 = load ptr, ptr %8, align 8
  %85 = getelementptr inbounds nuw %struct._packet_info, ptr %84, i32 0, i32 51
  %86 = load ptr, ptr %85, align 8
  %87 = load i16, ptr %11, align 2
  %88 = call ptr @get_sw_string(ptr noundef %86, i16 noundef zeroext %87)
  call void (ptr, i32, ptr, ...) @col_append_fstr(ptr noundef %83, i32 noundef 25, ptr noundef @.str.884, ptr noundef %88)
  br label %89

89:                                               ; preds = %80, %79
  br label %90

90:                                               ; preds = %89, %66
  %91 = load i32, ptr %7, align 4
  call void @llvm.lifetime.end.p0(i64 4, ptr %13) #3
  call void @llvm.lifetime.end.p0(i64 8, ptr %12) #3
  call void @llvm.lifetime.end.p0(i64 2, ptr %11) #3
  ret i32 %91
}