; Function Attrs: null_pointer_is_valid sspstrong uwtable
define internal fastcc i32 @dissect_rsp_apdu_tvb(ptr noundef %0, i32 noundef %1, ptr noundef readonly captures(none) %2, ptr noundef %3, ptr noundef %4) unnamed_addr #0 {
  %6 = tail call i32 @tvb_reported_length(ptr noundef %0)
  %7 = icmp eq ptr %3, null
  %8 = icmp ne ptr %4, null
  %or.cond = or i1 %7, %8
  br i1 %or.cond, label %15, label %9

9:                                                ; preds = %5
  %10 = load i32, ptr @proto_gsm_sim, align 4
  %11 = tail call ptr @proto_tree_add_item(ptr noundef nonnull %3, i32 noundef %10, ptr noundef %0, i32 noundef 0, i32 noundef -1, i32 noundef 0)
  %12 = load i32, ptr @ett_sim, align 4
  %13 = tail call ptr @proto_item_add_subtree(ptr noundef %11, i32 noundef %12)
  %14 = icmp eq ptr %11, null
  br label %15

15:                                               ; preds = %9, %5
  %.032 = phi ptr [ %4, %5 ], [ %13, %9 ]
  %.0 = phi i1 [ true, %5 ], [ %14, %9 ]
  %16 = sub i32 %6, %1
  %17 = icmp ugt i32 %16, 2
  br i1 %17, label %18, label %._crit_edge

._crit_edge:                                      ; preds = %15
  %.pre = add i32 %6, -2
  br label %22

18:                                               ; preds = %15
  %19 = load i32, ptr @hf_apdu_data, align 4
  %20 = add i32 %6, -2
  %21 = tail call ptr @proto_tree_add_item(ptr noundef %.032, i32 noundef %19, ptr noundef %0, i32 noundef %1, i32 noundef %20, i32 noundef 0)
  br label %22

22:                                               ; preds = %._crit_edge, %18
  %.pre-phi = phi i32 [ %.pre, %._crit_edge ], [ %20, %18 ]
  %23 = tail call zeroext i16 @tvb_get_ntohs(ptr noundef %0, i32 noundef %.pre-phi)
  %24 = load i32, ptr @hf_apdu_sw, align 4
  %25 = zext i16 %23 to i32
  %26 = getelementptr inbounds nuw i8, ptr %2, i64 408
  %27 = load ptr, ptr %26, align 8
  %28 = tail call fastcc ptr @get_sw_string(ptr noundef %27, i16 noundef zeroext %23)
  %29 = tail call ptr (ptr, i32, ptr, i32, i32, i32, ptr, ...) @proto_tree_add_uint_format(ptr noundef %.032, i32 noundef %24, ptr noundef %0, i32 noundef %.pre-phi, i32 noundef 2, i32 noundef %25, ptr noundef nonnull @.str.882, i32 noundef %25, ptr noundef %28)
  br i1 %.0, label %35, label %30

30:                                               ; preds = %22
  %31 = getelementptr inbounds nuw i8, ptr %2, i64 8
  %32 = load ptr, ptr %31, align 8
  %33 = load ptr, ptr %26, align 8
  %34 = tail call fastcc ptr @get_sw_string(ptr noundef %33, i16 noundef zeroext %23)
  tail call void (ptr, i32, ptr, ...) @col_add_fstr(ptr noundef %32, i32 noundef 25, ptr noundef nonnull @.str.883, ptr noundef %34)
  br label %42

35:                                               ; preds = %22
  %36 = lshr i16 %23, 8
  %trunc = trunc nuw i16 %36 to i8
  switch i8 %trunc, label %37 [
    i8 -112, label %42
    i8 -111, label %42
    i8 -110, label %42
    i8 -98, label %42
    i8 -97, label %42
  ]

37:                                               ; preds = %35
  %38 = getelementptr inbounds nuw i8, ptr %2, i64 8
  %39 = load ptr, ptr %38, align 8
  %40 = load ptr, ptr %26, align 8
  %41 = tail call fastcc ptr @get_sw_string(ptr noundef %40, i16 noundef zeroext %23)
  tail call void (ptr, i32, ptr, ...) @col_append_fstr(ptr noundef %39, i32 noundef 25, ptr noundef nonnull @.str.884, ptr noundef %41)
  br label %42

42:                                               ; preds = %37, %35, %35, %35, %35, %35, %30
  ret i32 %6
}